target datalayout = "e-m:e-p270:32:32-p271:32:32-p272:64:64-i64:64-i128:128-f80:128-n8:16:32:64-S128"
target triple = "x86_64-pc-linux-gnu"

%struct.MOVAtom = type { i32, i64 }
%struct.MOVContext = type { ptr, ptr, i32, i64, i32, i32, i32, i32, i32, i32, ptr, i32, ptr, ptr, i32, %struct.MOVFragment, ptr, i32, i32, i32, ptr, i32, i32, i32, i32, i32, i32, i32, i64, i32, i32, ptr, i32, i32, i32, i32, i32, %struct.MOVFragmentIndex, i32, i32, [20 x i8], [20 x i8], ptr, i32, ptr, i32, ptr, i32, ptr, i32, ptr, ptr, i32, i32, [3 x [3 x i32]], i32, i32, i32, i32, i32, ptr, i32, ptr, i32, i32, i64, i32 }
%struct.MOVFragment = type { i32, i32, i64, i64, i64, i32, i32, i32, i32 }
%struct.MOVFragmentIndex = type { i32, i32, i32, i32, ptr }

@.str.345 = private unnamed_addr constant [26 x i8] c"pitm: primary_item_id %d\0A\00", align 1

; Function Attrs: nounwind uwtable
define internal i32 @mov_read_pitm(ptr noundef %0, ptr noundef %1, i32 %2, i64 %3) #0 {
  %5 = alloca %struct.MOVAtom, align 8
  %6 = alloca ptr, align 8
  %7 = alloca ptr, align 8
  %8 = getelementptr inbounds nuw { i32, i64 }, ptr %5, i32 0, i32 0
  store i32 %2, ptr %8, align 8
  %9 = getelementptr inbounds nuw { i32, i64 }, ptr %5, i32 0, i32 1
  store i64 %3, ptr %9, align 8
  store ptr %0, ptr %6, align 8, !tbaa !4
  store ptr %1, ptr %7, align 8, !tbaa !9
  %10 = load ptr, ptr %7, align 8, !tbaa !9
  %11 = call i32 @avio_rb32(ptr noundef %10)
  %12 = load ptr, ptr %7, align 8, !tbaa !9
  %13 = call i32 @avio_rb16(ptr noundef %12)
  %14 = load ptr, ptr %6, align 8, !tbaa !4
  %15 = getelementptr inbounds nuw %struct.MOVContext, ptr %14, i32 0, i32 58
  store i32 %13, ptr %15, align 8, !tbaa !164
  %16 = load ptr, ptr %6, align 8, !tbaa !4
  %17 = getelementptr inbounds nuw %struct.MOVContext, ptr %16, i32 0, i32 1
  %18 = load ptr, ptr %17, align 8, !tbaa !13
  %19 = load ptr, ptr %6, align 8, !tbaa !4
  %20 = getelementptr inbounds nuw %struct.MOVContext, ptr %19, i32 0, i32 58
  %21 = load i32, ptr %20, align 8, !tbaa !164
  call void (ptr, i32, ptr, ...) @av_log(ptr noundef %18, i32 noundef 56, ptr noundef @.str.345, i32 noundef %21)
  %22 = getelementptr inbounds nuw %struct.MOVAtom, ptr %5, i32 0, i32 1
  %23 = load i64, ptr %22, align 8, !tbaa !58
  %24 = trunc i64 %23 to i32
  ret i32 %24
}