; Function Attrs: nounwind uwtable
define internal i32 @mov_read_pitm(ptr noundef captures(none) initializes((464, 468)) %0, ptr noundef %1, i32 %2, i64 %3) #0 {
  %5 = tail call i32 @avio_rb32(ptr noundef %1) #16
  %6 = tail call i32 @avio_rb16(ptr noundef %1) #16
  %7 = getelementptr inbounds nuw i8, ptr %0, i64 464
  store i32 %6, ptr %7, align 8, !tbaa !149
  %8 = getelementptr inbounds nuw i8, ptr %0, i64 8
  %9 = load ptr, ptr %8, align 8, !tbaa !4
  tail call void (ptr, i32, ptr, ...) @av_log(ptr noundef %9, i32 noundef 56, ptr noundef nonnull @.str.345, i32 noundef %6) #16
  %10 = trunc i64 %3 to i32
  ret i32 %10
}